target datalayout = "e-m:e-p270:32:32-p271:32:32-p272:64:64-i64:64-i128:128-f80:128-n8:16:32:64-S128"
target triple = "x86_64-pc-linux-gnu"

%struct.t_atoms = type { i32, ptr, ptr, ptr, ptr, i32, ptr, ptr, i8, i8, i8, i8, i8 }

; Function Attrs: mustprogress nounwind uwtable
define linkonce_odr noundef float @_ZSt3absf(float noundef %0) #3 comdat {
  %2 = alloca float, align 4
  store float %0, ptr %2, align 4
  %3 = load float, ptr %2, align 4
  %4 = call float @llvm.fabs.f32(float %3)
  ret float %4
}

; Function Attrs: mustprogress uwtable
define void @_Z9rm_gropbcPK7t_atomsPA3_fPA3_Kf(ptr noundef %0, ptr noundef %1, ptr noundef %2) #0 {
  %4 = alloca ptr, align 8
  %5 = alloca ptr, align 8
  %6 = alloca ptr, align 8
  %7 = alloca float, align 4
  %8 = alloca i32, align 4
  %9 = alloca i32, align 4
  %10 = alloca i32, align 4
  store ptr %0, ptr %4, align 8
  store ptr %1, ptr %5, align 8
  store ptr %2, ptr %6, align 8
  store i32 1, ptr %8, align 4
  br label %11

11:                                               ; preds = %117, %3
  %12 = load i32, ptr %8, align 4
  %13 = load ptr, ptr %4, align 8
  %14 = getelementptr inbounds %struct.t_atoms, ptr %13, i32 0, i32 0
  %15 = load i32, ptr %14, align 8
  %16 = icmp slt i32 %12, %15
  br i1 %16, label %17, label %120

17:                                               ; preds = %11
  store i32 2, ptr %9, align 4
  br label %18

18:                                               ; preds = %113, %17
  %19 = load i32, ptr %9, align 4
  %20 = icmp sge i32 %19, 0
  br i1 %20, label %21, label %116

21:                                               ; preds = %18
  %22 = load ptr, ptr %5, align 8
  %23 = load i32, ptr %8, align 4
  %24 = sext i32 %23 to i64
  %25 = getelementptr inbounds [3 x float], ptr %22, i64 %24
  %26 = load i32, ptr %9, align 4
  %27 = sext i32 %26 to i64
  %28 = getelementptr inbounds [3 x float], ptr %25, i64 0, i64 %27
  %29 = load float, ptr %28, align 4
  %30 = load ptr, ptr %5, align 8
  %31 = load i32, ptr %8, align 4
  %32 = sub nsw i32 %31, 1
  %33 = sext i32 %32 to i64
  %34 = getelementptr inbounds [3 x float], ptr %30, i64 %33
  %35 = load i32, ptr %9, align 4
  %36 = sext i32 %35 to i64
  %37 = getelementptr inbounds [3 x float], ptr %34, i64 0, i64 %36
  %38 = load float, ptr %37, align 4
  %39 = fsub float %29, %38
  store float %39, ptr %7, align 4
  %40 = load float, ptr %7, align 4
  %41 = call noundef float @_ZSt3absf(float noundef %40)
  %42 = fpext float %41 to double
  %43 = load ptr, ptr %6, align 8
  %44 = load i32, ptr %9, align 4
  %45 = sext i32 %44 to i64
  %46 = getelementptr inbounds [3 x float], ptr %43, i64 %45
  %47 = load i32, ptr %9, align 4
  %48 = sext i32 %47 to i64
  %49 = getelementptr inbounds [3 x float], ptr %46, i64 0, i64 %48
  %50 = load float, ptr %49, align 4
  %51 = fpext float %50 to double
  %52 = fmul double 9.000000e-01, %51
  %53 = fcmp ogt double %42, %52
  br i1 %53, label %54, label %112

54:                                               ; preds = %21
  %55 = load float, ptr %7, align 4
  %56 = fcmp ogt float %55, 0.000000e+00
  br i1 %56, label %57, label %84

57:                                               ; preds = %54
  store i32 0, ptr %10, align 4
  br label %58

58:                                               ; preds = %80, %57
  %59 = load i32, ptr %10, align 4
  %60 = load i32, ptr %9, align 4
  %61 = icmp sle i32 %59, %60
  br i1 %61, label %62, label %83

62:                                               ; preds = %58
  %63 = load ptr, ptr %6, align 8
  %64 = load i32, ptr %9, align 4
  %65 = sext i32 %64 to i64
  %66 = getelementptr inbounds [3 x float], ptr %63, i64 %65
  %67 = load i32, ptr %10, align 4
  %68 = sext i32 %67 to i64
  %69 = getelementptr inbounds [3 x float], ptr %66, i64 0, i64 %68
  %70 = load float, ptr %69, align 4
  %71 = load ptr, ptr %5, align 8
  %72 = load i32, ptr %8, align 4
  %73 = sext i32 %72 to i64
  %74 = getelementptr inbounds [3 x float], ptr %71, i64 %73
  %75 = load i32, ptr %10, align 4
  %76 = sext i32 %75 to i64
  %77 = getelementptr inbounds [3 x float], ptr %74, i64 0, i64 %76
  %78 = load float, ptr %77, align 4
  %79 = fsub float %78, %70
  store float %79, ptr %77, align 4
  br label %80

80:                                               ; preds = %62
  %81 = load i32, ptr %10, align 4
  %82 = add nsw i32 %81, 1
  store i32 %82, ptr %10, align 4
  br label %58, !llvm.loop !9

83:                                               ; preds = %58
  br label %111

84:                                               ; preds = %54
  store i32 0, ptr %10, align 4
  br label %85

85:                                               ; preds = %107, %84
  %86 = load i32, ptr %10, align 4
  %87 = load i32, ptr %9, align 4
  %88 = icmp sle i32 %86, %87
  br i1 %88, label %89, label %110

89:                                               ; preds = %85
  %90 = load ptr, ptr %6, align 8
  %91 = load i32, ptr %9, align 4
  %92 = sext i32 %91 to i64
  %93 = getelementptr inbounds [3 x float], ptr %90, i64 %92
  %94 = load i32, ptr %10, align 4
  %95 = sext i32 %94 to i64
  %96 = getelementptr inbounds [3 x float], ptr %93, i64 0, i64 %95
  %97 = load float, ptr %96, align 4
  %98 = load ptr, ptr %5, align 8
  %99 = load i32, ptr %8, align 4
  %100 = sext i32 %99 to i64
  %101 = getelementptr inbounds [3 x float], ptr %98, i64 %100
  %102 = load i32, ptr %10, align 4
  %103 = sext i32 %102 to i64
  %104 = getelementptr inbounds [3 x float], ptr %101, i64 0, i64 %103
  %105 = load float, ptr %104, align 4
  %106 = fadd float %105, %97
  store float %106, ptr %104, align 4
  br label %107

107:                                              ; preds = %89
  %108 = load i32, ptr %10, align 4
  %109 = add nsw i32 %108, 1
  store i32 %109, ptr %10, align 4
  br label %85, !llvm.loop !10

110:                                              ; preds = %85
  br label %111

111:                                              ; preds = %110, %83
  br label %112

112:                                              ; preds = %111, %21
  br label %113

113:                                              ; preds = %112
  %114 = load i32, ptr %9, align 4
  %115 = add nsw i32 %114, -1
  store i32 %115, ptr %9, align 4
  br label %18, !llvm.loop !11

116:                                              ; preds = %18
  br label %117

117:                                              ; preds = %116
  %118 = load i32, ptr %8, align 4
  %119 = add nsw i32 %118, 1
  store i32 %119, ptr %8, align 4
  br label %11, !llvm.loop !12

120:                                              ; preds = %11
  ret void
}