; Function Attrs: mustprogress nofree norecurse nosync nounwind memory(argmem: readwrite) uwtable
define void @_Z9rm_gropbcPK7t_atomsPA3_fPA3_Kf(ptr nocapture noundef readonly %0, ptr nocapture noundef %1, ptr nocapture noundef readonly %2) local_unnamed_addr #7 {
  %invariant.gep = getelementptr i8, ptr %1, i64 -12
  %4 = load i32, ptr %0, align 8
  %5 = icmp sgt i32 %4, 1
  br i1 %5, label %.preheader38, label %._crit_edge

.preheader38:                                     ; preds = %3, %31
  %indvars.iv63 = phi i64 [ %indvars.iv.next64, %31 ], [ 1, %3 ]
  br label %6

6:                                                ; preds = %.preheader38, %.loopexit
  %indvars.iv58 = phi i64 [ 2, %.preheader38 ], [ %indvars.iv.next59, %.loopexit ]
  %indvars.iv56 = phi i64 [ 3, %.preheader38 ], [ %indvars.iv.next57, %.loopexit ]
  %7 = getelementptr inbounds [3 x float], ptr %1, i64 %indvars.iv63, i64 %indvars.iv58
  %8 = load float, ptr %7, align 4
  %9 = getelementptr [3 x float], ptr %invariant.gep, i64 %indvars.iv63, i64 %indvars.iv58
  %10 = load float, ptr %9, align 4
  %11 = fsub float %8, %10
  %12 = tail call noundef float @llvm.fabs.f32(float %11)
  %13 = fpext float %12 to double
  %14 = getelementptr inbounds [3 x float], ptr %2, i64 %indvars.iv58, i64 %indvars.iv58
  %15 = load float, ptr %14, align 4
  %16 = fpext float %15 to double
  %17 = fmul double %16, 9.000000e-01
  %18 = fcmp olt double %17, %13
  br i1 %18, label %19, label %.loopexit

19:                                               ; preds = %6
  %20 = fcmp ogt float %11, 0.000000e+00
  br i1 %20, label %.lr.ph43, label %.lr.ph

.lr.ph43:                                         ; preds = %19, %.lr.ph43
  %indvars.iv51 = phi i64 [ %indvars.iv.next52, %.lr.ph43 ], [ 0, %19 ]
  %21 = getelementptr inbounds [3 x float], ptr %2, i64 %indvars.iv58, i64 %indvars.iv51
  %22 = load float, ptr %21, align 4
  %23 = getelementptr inbounds [3 x float], ptr %1, i64 %indvars.iv63, i64 %indvars.iv51
  %24 = load float, ptr %23, align 4
  %25 = fsub float %24, %22
  store float %25, ptr %23, align 4
  %indvars.iv.next52 = add nuw nsw i64 %indvars.iv51, 1
  %exitcond55.not = icmp eq i64 %indvars.iv.next52, %indvars.iv56
  br i1 %exitcond55.not, label %.loopexit, label %.lr.ph43, !llvm.loop !9

.lr.ph:                                           ; preds = %19, %.lr.ph
  %indvars.iv = phi i64 [ %indvars.iv.next, %.lr.ph ], [ 0, %19 ]
  %26 = getelementptr inbounds [3 x float], ptr %2, i64 %indvars.iv58, i64 %indvars.iv
  %27 = load float, ptr %26, align 4
  %28 = getelementptr inbounds [3 x float], ptr %1, i64 %indvars.iv63, i64 %indvars.iv
  %29 = load float, ptr %28, align 4
  %30 = fadd float %27, %29
  store float %30, ptr %28, align 4
  %indvars.iv.next = add nuw nsw i64 %indvars.iv, 1
  %exitcond.not = icmp eq i64 %indvars.iv.next, %indvars.iv56
  br i1 %exitcond.not, label %.loopexit, label %.lr.ph, !llvm.loop !10

.loopexit:                                        ; preds = %.lr.ph, %.lr.ph43, %6
  %indvars.iv.next59 = add nsw i64 %indvars.iv58, -1
  %.not = icmp eq i64 %indvars.iv58, 0
  %indvars.iv.next57 = add nsw i64 %indvars.iv56, -1
  br i1 %.not, label %31, label %6, !llvm.loop !11

31:                                               ; preds = %.loopexit
  %indvars.iv.next64 = add nuw nsw i64 %indvars.iv63, 1
  %32 = load i32, ptr %0, align 8
  %33 = sext i32 %32 to i64
  %34 = icmp slt i64 %indvars.iv.next64, %33
  br i1 %34, label %.preheader38, label %._crit_edge, !llvm.loop !12

._crit_edge:                                      ; preds = %31, %3
  ret void
}